target datalayout = "e-m:e-p270:32:32-p271:32:32-p272:64:64-i64:64-i128:128-f80:128-n8:16:32:64-S128"
target triple = "x86_64-unknown-linux-gnu"

; Function Attrs: mustprogress nounwind uwtable
define noundef double @_ZN8QuantLib15Gaussian1dModel26gaussianPolynomialIntegralEddddddd(double noundef %a, double noundef %b, double noundef %c, double noundef %d, double noundef %e, double noundef %y0, double noundef %y1) #3 align 2 {
entry:
  %a.addr = alloca double, align 8
  %b.addr = alloca double, align 8
  %c.addr = alloca double, align 8
  %d.addr = alloca double, align 8
  %e.addr = alloca double, align 8
  %y0.addr = alloca double, align 8
  %y1.addr = alloca double, align 8
  %aa = alloca double, align 8
  %ba = alloca double, align 8
  %ca = alloca double, align 8
  %da = alloca double, align 8
  %x0 = alloca double, align 8
  %x1 = alloca double, align 8
  store double %a, ptr %a.addr, align 8, !tbaa !11
  store double %b, ptr %b.addr, align 8, !tbaa !11
  store double %c, ptr %c.addr, align 8, !tbaa !11
  store double %d, ptr %d.addr, align 8, !tbaa !11
  store double %e, ptr %e.addr, align 8, !tbaa !11
  store double %y0, ptr %y0.addr, align 8, !tbaa !11
  store double %y1, ptr %y1.addr, align 8, !tbaa !11
  call void @llvm.lifetime.start.p0(i64 8, ptr %aa) #14
  %0 = load double, ptr %a.addr, align 8, !tbaa !11
  %mul = fmul double 4.000000e+00, %0
  store double %mul, ptr %aa, align 8, !tbaa !11
  call void @llvm.lifetime.start.p0(i64 8, ptr %ba) #14
  %1 = load double, ptr %b.addr, align 8, !tbaa !11
  %mul1 = fmul double 0x4006A09E667F3BCD, %1
  store double %mul1, ptr %ba, align 8, !tbaa !11
  call void @llvm.lifetime.start.p0(i64 8, ptr %ca) #14
  %2 = load double, ptr %c.addr, align 8, !tbaa !11
  %mul2 = fmul double 2.000000e+00, %2
  store double %mul2, ptr %ca, align 8, !tbaa !11
  call void @llvm.lifetime.start.p0(i64 8, ptr %da) #14
  %3 = load double, ptr %d.addr, align 8, !tbaa !11
  %mul3 = fmul double 0x3FF6A09E667F3BCD, %3
  store double %mul3, ptr %da, align 8, !tbaa !11
  call void @llvm.lifetime.start.p0(i64 8, ptr %x0) #14
  %4 = load double, ptr %y0.addr, align 8, !tbaa !11
  %mul4 = fmul double %4, 0x3FE6A09E667F3BCD
  store double %mul4, ptr %x0, align 8, !tbaa !11
  call void @llvm.lifetime.start.p0(i64 8, ptr %x1) #14
  %5 = load double, ptr %y1.addr, align 8, !tbaa !11
  %mul5 = fmul double %5, 0x3FE6A09E667F3BCD
  store double %mul5, ptr %x1, align 8, !tbaa !11
  %6 = load double, ptr %aa, align 8, !tbaa !11
  %7 = load double, ptr %ca, align 8, !tbaa !11
  %mul7 = fmul double 2.000000e+00, %7
  %8 = call double @llvm.fmuladd.f64(double 3.000000e+00, double %6, double %mul7)
  %9 = load double, ptr %e.addr, align 8, !tbaa !11
  %10 = call double @llvm.fmuladd.f64(double 4.000000e+00, double %9, double %8)
  %mul9 = fmul double 1.250000e-01, %10
  %11 = load double, ptr %x1, align 8, !tbaa !11
  %call = call double @erf(double noundef %11) #14, !tbaa !48
  %12 = load double, ptr %x1, align 8, !tbaa !11
  %fneg = fneg double %12
  %13 = load double, ptr %x1, align 8, !tbaa !11
  %mul11 = fmul double %fneg, %13
  %call12 = call double @exp(double noundef %mul11) #14, !tbaa !48
  %mul13 = fmul double 0x3FC20DD750429B6D, %call12
  %14 = load double, ptr %aa, align 8, !tbaa !11
  %mul14 = fmul double 2.000000e+00, %14
  %15 = load double, ptr %x1, align 8, !tbaa !11
  %mul15 = fmul double %mul14, %15
  %16 = load double, ptr %x1, align 8, !tbaa !11
  %mul16 = fmul double %mul15, %16
  %17 = load double, ptr %x1, align 8, !tbaa !11
  %18 = load double, ptr %aa, align 8, !tbaa !11
  %mul18 = fmul double 3.000000e+00, %18
  %19 = load double, ptr %x1, align 8, !tbaa !11
  %mul19 = fmul double %mul18, %19
  %20 = call double @llvm.fmuladd.f64(double %mul16, double %17, double %mul19)
  %21 = load double, ptr %ba, align 8, !tbaa !11
  %mul20 = fmul double 2.000000e+00, %21
  %22 = load double, ptr %x1, align 8, !tbaa !11
  %23 = load double, ptr %x1, align 8, !tbaa !11
  %24 = call double @llvm.fmuladd.f64(double %22, double %23, double 1.000000e+00)
  %25 = call double @llvm.fmuladd.f64(double %mul20, double %24, double %20)
  %26 = load double, ptr %ca, align 8, !tbaa !11
  %mul23 = fmul double 2.000000e+00, %26
  %27 = load double, ptr %x1, align 8, !tbaa !11
  %28 = call double @llvm.fmuladd.f64(double %mul23, double %27, double %25)
  %29 = load double, ptr %da, align 8, !tbaa !11
  %30 = call double @llvm.fmuladd.f64(double 2.000000e+00, double %29, double %28)
  %mul26 = fmul double %mul13, %30
  %neg = fneg double %mul26
  %31 = call double @llvm.fmuladd.f64(double %mul9, double %call, double %neg)
  %32 = load double, ptr %aa, align 8, !tbaa !11
  %33 = load double, ptr %ca, align 8, !tbaa !11
  %mul28 = fmul double 2.000000e+00, %33
  %34 = call double @llvm.fmuladd.f64(double 3.000000e+00, double %32, double %mul28)
  %35 = load double, ptr %e.addr, align 8, !tbaa !11
  %36 = call double @llvm.fmuladd.f64(double 4.000000e+00, double %35, double %34)
  %mul30 = fmul double 1.250000e-01, %36
  %37 = load double, ptr %x0, align 8, !tbaa !11
  %call31 = call double @erf(double noundef %37) #14, !tbaa !48
  %38 = load double, ptr %x0, align 8, !tbaa !11
  %fneg33 = fneg double %38
  %39 = load double, ptr %x0, align 8, !tbaa !11
  %mul34 = fmul double %fneg33, %39
  %call35 = call double @exp(double noundef %mul34) #14, !tbaa !48
  %mul36 = fmul double 0x3FC20DD750429B6D, %call35
  %40 = load double, ptr %aa, align 8, !tbaa !11
  %mul37 = fmul double 2.000000e+00, %40
  %41 = load double, ptr %x0, align 8, !tbaa !11
  %mul38 = fmul double %mul37, %41
  %42 = load double, ptr %x0, align 8, !tbaa !11
  %mul39 = fmul double %mul38, %42
  %43 = load double, ptr %x0, align 8, !tbaa !11
  %44 = load double, ptr %aa, align 8, !tbaa !11
  %mul41 = fmul double 3.000000e+00, %44
  %45 = load double, ptr %x0, align 8, !tbaa !11
  %mul42 = fmul double %mul41, %45
  %46 = call double @llvm.fmuladd.f64(double %mul39, double %43, double %mul42)
  %47 = load double, ptr %ba, align 8, !tbaa !11
  %mul43 = fmul double 2.000000e+00, %47
  %48 = load double, ptr %x0, align 8, !tbaa !11
  %49 = load double, ptr %x0, align 8, !tbaa !11
  %50 = call double @llvm.fmuladd.f64(double %48, double %49, double 1.000000e+00)
  %51 = call double @llvm.fmuladd.f64(double %mul43, double %50, double %46)
  %52 = load double, ptr %ca, align 8, !tbaa !11
  %mul46 = fmul double 2.000000e+00, %52
  %53 = load double, ptr %x0, align 8, !tbaa !11
  %54 = call double @llvm.fmuladd.f64(double %mul46, double %53, double %51)
  %55 = load double, ptr %da, align 8, !tbaa !11
  %56 = call double @llvm.fmuladd.f64(double 2.000000e+00, double %55, double %54)
  %mul49 = fmul double %mul36, %56
  %neg50 = fneg double %mul49
  %57 = call double @llvm.fmuladd.f64(double %mul30, double %call31, double %neg50)
  %sub = fsub double %31, %57
  call void @llvm.lifetime.end.p0(i64 8, ptr %x1) #14
  call void @llvm.lifetime.end.p0(i64 8, ptr %x0) #14
  call void @llvm.lifetime.end.p0(i64 8, ptr %da) #14
  call void @llvm.lifetime.end.p0(i64 8, ptr %ca) #14
  call void @llvm.lifetime.end.p0(i64 8, ptr %ba) #14
  call void @llvm.lifetime.end.p0(i64 8, ptr %aa) #14
  ret double %sub
}