; Function Attrs: mustprogress nofree nounwind willreturn memory(write) uwtable
define noundef double @_ZN8QuantLib15Gaussian1dModel26gaussianPolynomialIntegralEddddddd(double noundef %a, double noundef %b, double noundef %c, double noundef %d, double noundef %e, double noundef %y0, double noundef %y1) local_unnamed_addr #12 align 2 {
entry:
  %mul = fmul double %a, 4.000000e+00
  %mul1 = fmul double %b, 0x4006A09E667F3BCD
  %mul2 = fmul double %c, 2.000000e+00
  %mul3 = fmul double %d, 0x3FF6A09E667F3BCD
  %mul4 = fmul double %y0, 0x3FE6A09E667F3BCD
  %mul5 = fmul double %y1, 0x3FE6A09E667F3BCD
  %mul7 = fmul double %mul2, 2.000000e+00
  %0 = tail call double @llvm.fmuladd.f64(double %mul, double 3.000000e+00, double %mul7)
  %1 = tail call double @llvm.fmuladd.f64(double %e, double 4.000000e+00, double %0)
  %mul9 = fmul double %1, 1.250000e-01
  %call = tail call double @erf(double noundef %mul5) #29, !tbaa !184
  %fneg = fneg double %mul5
  %mul11 = fmul double %mul5, %fneg
  %call12 = tail call double @exp(double noundef %mul11) #29, !tbaa !184
  %mul13 = fmul double %call12, 0x3FC20DD750429B6D
  %mul14 = fmul double %mul, 2.000000e+00
  %mul15 = fmul double %mul14, %mul5
  %mul16 = fmul double %mul5, %mul15
  %mul18 = fmul double %mul, 3.000000e+00
  %mul19 = fmul double %mul18, %mul5
  %2 = tail call double @llvm.fmuladd.f64(double %mul16, double %mul5, double %mul19)
  %mul20 = fmul double %mul1, 2.000000e+00
  %3 = tail call double @llvm.fmuladd.f64(double %mul5, double %mul5, double 1.000000e+00)
  %4 = tail call double @llvm.fmuladd.f64(double %mul20, double %3, double %2)
  %5 = tail call double @llvm.fmuladd.f64(double %mul7, double %mul5, double %4)
  %6 = tail call double @llvm.fmuladd.f64(double %mul3, double 2.000000e+00, double %5)
  %7 = fneg double %6
  %neg = fmul double %mul13, %7
  %8 = tail call double @llvm.fmuladd.f64(double %mul9, double %call, double %neg)
  %call31 = tail call double @erf(double noundef %mul4) #29, !tbaa !184
  %fneg33 = fneg double %mul4
  %mul34 = fmul double %mul4, %fneg33
  %call35 = tail call double @exp(double noundef %mul34) #29, !tbaa !184
  %mul36 = fmul double %call35, 0x3FC20DD750429B6D
  %mul38 = fmul double %mul14, %mul4
  %mul39 = fmul double %mul4, %mul38
  %mul42 = fmul double %mul18, %mul4
  %9 = tail call double @llvm.fmuladd.f64(double %mul39, double %mul4, double %mul42)
  %10 = tail call double @llvm.fmuladd.f64(double %mul4, double %mul4, double 1.000000e+00)
  %11 = tail call double @llvm.fmuladd.f64(double %mul20, double %10, double %9)
  %12 = tail call double @llvm.fmuladd.f64(double %mul7, double %mul4, double %11)
  %13 = tail call double @llvm.fmuladd.f64(double %mul3, double 2.000000e+00, double %12)
  %14 = fneg double %13
  %neg50 = fmul double %mul36, %14
  %15 = tail call double @llvm.fmuladd.f64(double %mul9, double %call31, double %neg50)
  %sub = fsub double %8, %15
  ret double %sub
}